target datalayout = "e-m:e-p270:32:32-p271:32:32-p272:64:64-i64:64-i128:128-f80:128-n8:16:32:64-S128"
target triple = "x86_64-pc-linux-gnu"

%struct.quic_conn_st = type { %struct.quic_obj_st, ptr, ptr, ptr, ptr, ptr, ptr, ptr, ptr, %union.bio_addr_st, %struct.quic_thread_assist_st, i64, i16, i32, i32, i64, i32, i64, i32 }
%struct.quic_obj_st = type { %struct.ssl_st, ptr, ptr, ptr, ptr, ptr, i64, i8 }
%struct.ssl_st = type { i32, ptr, ptr, ptr, %struct.CRYPTO_REF_COUNT, ptr, %struct.crypto_ex_data_st }
%struct.CRYPTO_REF_COUNT = type { i32 }
%struct.crypto_ex_data_st = type { ptr, ptr }
%union.bio_addr_st = type { %struct.sockaddr_in6, [84 x i8] }
%struct.sockaddr_in6 = type { i16, i16, i32, %struct.in6_addr, i32 }
%struct.in6_addr = type { %union.anon }
%union.anon = type { [4 x i32] }
%struct.quic_thread_assist_st = type { ptr, ptr, ptr, i32, i32 }
%struct.OSSL_TIME = type { i64 }
%struct.qctx_st = type { ptr, ptr, ptr, ptr, ptr, i32, i32, i32, i32 }
%struct.quic_xso_st = type { %struct.quic_obj_st, ptr, ptr, i8, ptr, i64, i64, i32, i64, i32 }
%struct.quic_stream_st = type { %struct.quic_stream_list_node_st, %struct.quic_stream_list_node_st, %struct.quic_stream_list_node_st, ptr, i64, i64, i64, i64, i64, i64, i64, ptr, ptr, %struct.quic_txfc_st, %struct.quic_rxfc_st, i64 }
%struct.quic_stream_list_node_st = type { ptr, ptr }
%struct.quic_txfc_st = type { ptr, i64, i64, i8 }
%struct.quic_rxfc_st = type { i64, i64, i64, i64, i64, i64, i64, %struct.OSSL_TIME, ptr, ptr, ptr, i8, i8, i8, i8 }

@.str = private unnamed_addr constant [32 x i8] c"../openssl/ssl/quic/quic_impl.c\00", align 1
@__func__.quic_write_nonblocking_epw = private unnamed_addr constant [27 x i8] c"quic_write_nonblocking_epw\00", align 1

; Function Attrs: nounwind uwtable
define internal void @quic_set_last_error(ptr noundef %0, i32 noundef %1) #0 {
  %3 = alloca ptr, align 8
  %4 = alloca i32, align 4
  store ptr %0, ptr %3, align 8, !tbaa !119
  store i32 %1, ptr %4, align 4, !tbaa !122
  %5 = load ptr, ptr %3, align 8, !tbaa !119
  %6 = getelementptr inbounds nuw %struct.qctx_st, ptr %5, i32 0, i32 8
  %7 = load i32, ptr %6, align 4, !tbaa !200
  %8 = icmp ne i32 %7, 0
  br i1 %8, label %10, label %9

9:                                                ; preds = %2
  br label %43

10:                                               ; preds = %2
  %11 = load ptr, ptr %3, align 8, !tbaa !119
  %12 = getelementptr inbounds nuw %struct.qctx_st, ptr %11, i32 0, i32 5
  %13 = load i32, ptr %12, align 8, !tbaa !139
  %14 = icmp ne i32 %13, 0
  br i1 %14, label %15, label %26

15:                                               ; preds = %10
  %16 = load ptr, ptr %3, align 8, !tbaa !119
  %17 = getelementptr inbounds nuw %struct.qctx_st, ptr %16, i32 0, i32 4
  %18 = load ptr, ptr %17, align 8, !tbaa !141
  %19 = icmp ne ptr %18, null
  br i1 %19, label %20, label %26

20:                                               ; preds = %15
  %21 = load i32, ptr %4, align 4, !tbaa !122
  %22 = load ptr, ptr %3, align 8, !tbaa !119
  %23 = getelementptr inbounds nuw %struct.qctx_st, ptr %22, i32 0, i32 4
  %24 = load ptr, ptr %23, align 8, !tbaa !141
  %25 = getelementptr inbounds nuw %struct.quic_xso_st, ptr %24, i32 0, i32 9
  store i32 %21, ptr %25, align 8, !tbaa !208
  br label %43

26:                                               ; preds = %15, %10
  %27 = load ptr, ptr %3, align 8, !tbaa !119
  %28 = getelementptr inbounds nuw %struct.qctx_st, ptr %27, i32 0, i32 5
  %29 = load i32, ptr %28, align 8, !tbaa !139
  %30 = icmp ne i32 %29, 0
  br i1 %30, label %42, label %31

31:                                               ; preds = %26
  %32 = load ptr, ptr %3, align 8, !tbaa !119
  %33 = getelementptr inbounds nuw %struct.qctx_st, ptr %32, i32 0, i32 3
  %34 = load ptr, ptr %33, align 8, !tbaa !123
  %35 = icmp ne ptr %34, null
  br i1 %35, label %36, label %42

36:                                               ; preds = %31
  %37 = load i32, ptr %4, align 4, !tbaa !122
  %38 = load ptr, ptr %3, align 8, !tbaa !119
  %39 = getelementptr inbounds nuw %struct.qctx_st, ptr %38, i32 0, i32 3
  %40 = load ptr, ptr %39, align 8, !tbaa !123
  %41 = getelementptr inbounds nuw %struct.quic_conn_st, ptr %40, i32 0, i32 18
  store i32 %37, ptr %41, align 8, !tbaa !118
  br label %42

42:                                               ; preds = %36, %31, %26
  br label %43

43:                                               ; preds = %9, %42, %20
  ret void
}

; Function Attrs: nounwind uwtable
define internal i32 @quic_raise_normal_error(ptr noundef %0, i32 noundef %1) #0 {
  %3 = alloca ptr, align 8
  %4 = alloca i32, align 4
  store ptr %0, ptr %3, align 8, !tbaa !119
  store i32 %1, ptr %4, align 4, !tbaa !122
  %5 = load ptr, ptr %3, align 8, !tbaa !119
  %6 = load i32, ptr %4, align 4, !tbaa !122
  call void @quic_set_last_error(ptr noundef %5, i32 noundef %6)
  ret i32 0
}

; Function Attrs: nounwind uwtable
define internal void @quic_post_write(ptr noundef %0, i32 noundef %1, i32 noundef %2, i64 noundef %3, i32 noundef %4) #0 {
  %6 = alloca ptr, align 8
  %7 = alloca i32, align 4
  %8 = alloca i32, align 4
  %9 = alloca i64, align 8
  %10 = alloca i32, align 4
  store ptr %0, ptr %6, align 8, !tbaa !156
  store i32 %1, ptr %7, align 4, !tbaa !122
  store i32 %2, ptr %8, align 4, !tbaa !122
  store i64 %3, ptr %9, align 8, !tbaa !169
  store i32 %4, ptr %10, align 4, !tbaa !122
  %11 = load i32, ptr %7, align 4, !tbaa !122
  %12 = icmp ne i32 %11, 0
  br i1 %12, label %13, label %23

13:                                               ; preds = %5
  %14 = load ptr, ptr %6, align 8, !tbaa !156
  %15 = getelementptr inbounds nuw %struct.quic_xso_st, ptr %14, i32 0, i32 1
  %16 = load ptr, ptr %15, align 8, !tbaa !210
  %17 = getelementptr inbounds nuw %struct.quic_conn_st, ptr %16, i32 0, i32 6
  %18 = load ptr, ptr %17, align 8, !tbaa !106
  %19 = call ptr @ossl_quic_channel_get_qsm(ptr noundef %18)
  %20 = load ptr, ptr %6, align 8, !tbaa !156
  %21 = getelementptr inbounds nuw %struct.quic_xso_st, ptr %20, i32 0, i32 2
  %22 = load ptr, ptr %21, align 8, !tbaa !142
  call void @ossl_quic_stream_map_update_state(ptr noundef %19, ptr noundef %22)
  br label %23

23:                                               ; preds = %13, %5
  %24 = load i32, ptr %8, align 4, !tbaa !122
  %25 = icmp ne i32 %24, 0
  br i1 %25, label %26, label %36

26:                                               ; preds = %23
  %27 = load i64, ptr %9, align 8, !tbaa !169
  %28 = and i64 %27, 1
  %29 = icmp ne i64 %28, 0
  br i1 %29, label %30, label %36

30:                                               ; preds = %26
  %31 = load ptr, ptr %6, align 8, !tbaa !156
  %32 = getelementptr inbounds nuw %struct.quic_xso_st, ptr %31, i32 0, i32 2
  %33 = load ptr, ptr %32, align 8, !tbaa !142
  %34 = getelementptr inbounds nuw %struct.quic_stream_st, ptr %33, i32 0, i32 11
  %35 = load ptr, ptr %34, align 8, !tbaa !145
  call void @ossl_quic_sstream_fin(ptr noundef %35)
  br label %36

36:                                               ; preds = %30, %26, %23
  %37 = load i32, ptr %10, align 4, !tbaa !122
  %38 = icmp ne i32 %37, 0
  br i1 %38, label %39, label %47

39:                                               ; preds = %36
  %40 = load ptr, ptr %6, align 8, !tbaa !156
  %41 = getelementptr inbounds nuw %struct.quic_xso_st, ptr %40, i32 0, i32 1
  %42 = load ptr, ptr %41, align 8, !tbaa !210
  %43 = getelementptr inbounds nuw %struct.quic_conn_st, ptr %42, i32 0, i32 6
  %44 = load ptr, ptr %43, align 8, !tbaa !106
  %45 = call ptr @ossl_quic_channel_get_reactor(ptr noundef %44)
  %46 = call i32 @ossl_quic_reactor_tick(ptr noundef %45, i32 noundef 0)
  br label %47

47:                                               ; preds = %39, %36
  ret void
}

; Function Attrs: nounwind uwtable
define internal i32 @qctx_should_autotick(ptr noundef %0) #0 {
  %2 = alloca ptr, align 8
  %3 = alloca i32, align 4
  %4 = alloca ptr, align 8
  store ptr %0, ptr %2, align 8, !tbaa !119
  call void @llvm.lifetime.start.p0(i64 4, ptr %3) #10
  call void @llvm.lifetime.start.p0(i64 8, ptr %4) #10
  %5 = load ptr, ptr %2, align 8, !tbaa !119
  %6 = getelementptr inbounds nuw %struct.qctx_st, ptr %5, i32 0, i32 0
  %7 = load ptr, ptr %6, align 8, !tbaa !166
  store ptr %7, ptr %4, align 8, !tbaa !172
  br label %8

8:                                                ; preds = %24, %1
  %9 = load ptr, ptr %4, align 8, !tbaa !172
  %10 = getelementptr inbounds nuw %struct.quic_obj_st, ptr %9, i32 0, i32 7
  %11 = load i8, ptr %10, align 8
  %12 = lshr i8 %11, 5
  %13 = and i8 %12, 3
  %14 = zext i8 %13 to i32
  store i32 %14, ptr %3, align 4, !tbaa !122
  %15 = icmp eq i32 %14, 0
  br i1 %15, label %16, label %21

16:                                               ; preds = %8
  %17 = load ptr, ptr %4, align 8, !tbaa !172
  %18 = getelementptr inbounds nuw %struct.quic_obj_st, ptr %17, i32 0, i32 1
  %19 = load ptr, ptr %18, align 8, !tbaa !175
  %20 = icmp ne ptr %19, null
  br label %21

21:                                               ; preds = %16, %8
  %22 = phi i1 [ false, %8 ], [ %20, %16 ]
  br i1 %22, label %23, label %28

23:                                               ; preds = %21
  br label %24

24:                                               ; preds = %23
  %25 = load ptr, ptr %4, align 8, !tbaa !172
  %26 = getelementptr inbounds nuw %struct.quic_obj_st, ptr %25, i32 0, i32 1
  %27 = load ptr, ptr %26, align 8, !tbaa !175
  store ptr %27, ptr %4, align 8, !tbaa !172
  br label %8, !llvm.loop !211

28:                                               ; preds = %21
  %29 = load i32, ptr %3, align 4, !tbaa !122
  %30 = icmp ne i32 %29, 2
  %31 = zext i1 %30 to i32
  call void @llvm.lifetime.end.p0(i64 8, ptr %4) #10
  call void @llvm.lifetime.end.p0(i64 4, ptr %3) #10
  ret i32 %31
}

; Function Attrs: nounwind uwtable
define internal i32 @quic_write_nonblocking_epw(ptr noundef %0, ptr noundef %1, i64 noundef %2, i64 noundef %3, ptr noundef %4) #0 {
  %6 = alloca i32, align 4
  %7 = alloca ptr, align 8
  %8 = alloca ptr, align 8
  %9 = alloca i64, align 8
  %10 = alloca i64, align 8
  %11 = alloca ptr, align 8
  %12 = alloca ptr, align 8
  %13 = alloca i32, align 4
  store ptr %0, ptr %7, align 8, !tbaa !119
  store ptr %1, ptr %8, align 8, !tbaa !167
  store i64 %2, ptr %9, align 8, !tbaa !169
  store i64 %3, ptr %10, align 8, !tbaa !169
  store ptr %4, ptr %11, align 8, !tbaa !209
  call void @llvm.lifetime.start.p0(i64 8, ptr %12) #10
  %14 = load ptr, ptr %7, align 8, !tbaa !119
  %15 = getelementptr inbounds nuw %struct.qctx_st, ptr %14, i32 0, i32 4
  %16 = load ptr, ptr %15, align 8, !tbaa !141
  store ptr %16, ptr %12, align 8, !tbaa !156
  %17 = load ptr, ptr %12, align 8, !tbaa !156
  %18 = load ptr, ptr %8, align 8, !tbaa !167
  %19 = load i64, ptr %9, align 8, !tbaa !169
  %20 = load ptr, ptr %11, align 8, !tbaa !209
  %21 = call i32 @xso_sstream_append(ptr noundef %17, ptr noundef %18, i64 noundef %19, ptr noundef %20)
  %22 = icmp ne i32 %21, 0
  br i1 %22, label %27, label %23

23:                                               ; preds = %5
  %24 = load ptr, ptr %11, align 8, !tbaa !209
  store i64 0, ptr %24, align 8, !tbaa !169
  %25 = load ptr, ptr %7, align 8, !tbaa !119
  %26 = call i32 (ptr, ptr, i32, ptr, i32, ptr, ...) @quic_raise_non_normal_error(ptr noundef %25, ptr noundef @.str, i32 noundef 2694, ptr noundef @__func__.quic_write_nonblocking_epw, i32 noundef 786691, ptr noundef null)
  store i32 %26, ptr %6, align 4
  store i32 1, ptr %13, align 4
  br label %48

27:                                               ; preds = %5
  %28 = load ptr, ptr %12, align 8, !tbaa !156
  %29 = load ptr, ptr %11, align 8, !tbaa !209
  %30 = load i64, ptr %29, align 8, !tbaa !169
  %31 = icmp ugt i64 %30, 0
  %32 = zext i1 %31 to i32
  %33 = load ptr, ptr %11, align 8, !tbaa !209
  %34 = load i64, ptr %33, align 8, !tbaa !169
  %35 = load i64, ptr %9, align 8, !tbaa !169
  %36 = icmp eq i64 %34, %35
  %37 = zext i1 %36 to i32
  %38 = load i64, ptr %10, align 8, !tbaa !169
  %39 = load ptr, ptr %7, align 8, !tbaa !119
  %40 = call i32 @qctx_should_autotick(ptr noundef %39)
  call void @quic_post_write(ptr noundef %28, i32 noundef %32, i32 noundef %37, i64 noundef %38, i32 noundef %40)
  %41 = load ptr, ptr %11, align 8, !tbaa !209
  %42 = load i64, ptr %41, align 8, !tbaa !169
  %43 = icmp eq i64 %42, 0
  br i1 %43, label %44, label %47

44:                                               ; preds = %27
  %45 = load ptr, ptr %7, align 8, !tbaa !119
  %46 = call i32 @quic_raise_normal_error(ptr noundef %45, i32 noundef 3)
  store i32 %46, ptr %6, align 4
  store i32 1, ptr %13, align 4
  br label %48

47:                                               ; preds = %27
  store i32 1, ptr %6, align 4
  store i32 1, ptr %13, align 4
  br label %48

48:                                               ; preds = %47, %44, %23
  call void @llvm.lifetime.end.p0(i64 8, ptr %12) #10
  %49 = load i32, ptr %6, align 4
  ret i32 %49
}