; Function Attrs: nounwind uwtable
define internal fastcc range(i32 0, 2) i32 @quic_write_nonblocking_epw(ptr noundef nonnull captures(address_is_null) %0, ptr noundef %1, i64 noundef range(i64 1, 0) %2, i64 noundef %3, ptr noundef %4) unnamed_addr #0 {
  %6 = getelementptr inbounds nuw i8, ptr %0, i64 32
  %7 = load ptr, ptr %6, align 8, !tbaa !130
  %8 = tail call fastcc i32 @xso_sstream_append(ptr noundef %7, ptr noundef %1, i64 noundef %2, ptr noundef %4)
  %.not = icmp eq i32 %8, 0
  br i1 %.not, label %9, label %10

9:                                                ; preds = %5
  store i64 0, ptr %4, align 8, !tbaa !160
  tail call void (ptr, ptr, i32, ptr, i32, ptr, ...) @quic_raise_non_normal_error(ptr noundef nonnull %0, ptr nonnull poison, i32 noundef 2694, ptr noundef nonnull @__func__.quic_write_nonblocking_epw, i32 noundef 786691, ptr noundef null)
  br label %quic_raise_normal_error.exit

10:                                               ; preds = %5
  %11 = load i64, ptr %4, align 8, !tbaa !160
  %.not16 = icmp eq i64 %11, 0
  %12 = icmp ne i64 %11, %2
  %.val = load ptr, ptr %0, align 8, !tbaa !157
  br label %13

13:                                               ; preds = %19, %10
  %.0.i = phi ptr [ %.val, %10 ], [ %21, %19 ]
  %14 = getelementptr inbounds nuw i8, ptr %.0.i, i64 112
  %15 = load i8, ptr %14, align 8
  %16 = lshr i8 %15, 5
  %17 = and i8 %16, 3
  %18 = icmp eq i8 %17, 0
  br i1 %18, label %19, label %qctx_should_autotick.exit

19:                                               ; preds = %13
  %20 = getelementptr inbounds nuw i8, ptr %.0.i, i64 64
  %21 = load ptr, ptr %20, align 8, !tbaa !165
  %.not.i = icmp eq ptr %21, null
  br i1 %.not.i, label %qctx_should_autotick.exit, label %13, !llvm.loop !173

qctx_should_autotick.exit:                        ; preds = %13, %19
  %.not17 = icmp eq i8 %17, 2
  br i1 %.not16, label %30, label %22

22:                                               ; preds = %qctx_should_autotick.exit
  %23 = getelementptr inbounds nuw i8, ptr %7, i64 120
  %24 = load ptr, ptr %23, align 8, !tbaa !136
  %25 = getelementptr inbounds nuw i8, ptr %24, i64 160
  %26 = load ptr, ptr %25, align 8, !tbaa !113
  %27 = tail call ptr @ossl_quic_channel_get_qsm(ptr noundef %26) #12
  %28 = getelementptr inbounds nuw i8, ptr %7, i64 128
  %29 = load ptr, ptr %28, align 8, !tbaa !145
  tail call void @ossl_quic_stream_map_update_state(ptr noundef %27, ptr noundef %29) #12
  br label %30

30:                                               ; preds = %22, %qctx_should_autotick.exit
  %31 = and i64 %3, 1
  %.not8.i = icmp eq i64 %31, 0
  %or.cond.i = or i1 %.not8.i, %12
  br i1 %or.cond.i, label %37, label %32

32:                                               ; preds = %30
  %33 = getelementptr inbounds nuw i8, ptr %7, i64 128
  %34 = load ptr, ptr %33, align 8, !tbaa !145
  %35 = getelementptr inbounds nuw i8, ptr %34, i64 112
  %36 = load ptr, ptr %35, align 8, !tbaa !146
  tail call void @ossl_quic_sstream_fin(ptr noundef %36) #12
  br label %37

37:                                               ; preds = %32, %30
  br i1 %.not17, label %quic_post_write.exit, label %38

38:                                               ; preds = %37
  %39 = getelementptr inbounds nuw i8, ptr %7, i64 120
  %40 = load ptr, ptr %39, align 8, !tbaa !136
  %41 = getelementptr inbounds nuw i8, ptr %40, i64 160
  %42 = load ptr, ptr %41, align 8, !tbaa !113
  %43 = tail call ptr @ossl_quic_channel_get_reactor(ptr noundef %42) #12
  %44 = tail call i32 @ossl_quic_reactor_tick(ptr noundef %43, i32 noundef 0) #12
  br label %quic_post_write.exit

quic_post_write.exit:                             ; preds = %37, %38
  %45 = load i64, ptr %4, align 8, !tbaa !160
  %46 = icmp eq i64 %45, 0
  br i1 %46, label %47, label %quic_raise_normal_error.exit

47:                                               ; preds = %quic_post_write.exit
  %48 = getelementptr inbounds nuw i8, ptr %0, i64 52
  %49 = load i32, ptr %48, align 4, !tbaa !126
  %.not.i.i = icmp eq i32 %49, 0
  br i1 %.not.i.i, label %quic_raise_normal_error.exit, label %50

50:                                               ; preds = %47
  %51 = getelementptr inbounds nuw i8, ptr %0, i64 40
  %52 = load i32, ptr %51, align 8, !tbaa !129
  %.not9.i.i = icmp eq i32 %52, 0
  br i1 %.not9.i.i, label %57, label %53

53:                                               ; preds = %50
  %54 = load ptr, ptr %6, align 8, !tbaa !130
  %.not10.i.i = icmp eq ptr %54, null
  br i1 %.not10.i.i, label %quic_raise_normal_error.exit, label %55

55:                                               ; preds = %53
  %56 = getelementptr inbounds nuw i8, ptr %54, i64 184
  store i32 3, ptr %56, align 8, !tbaa !131
  br label %quic_raise_normal_error.exit

57:                                               ; preds = %50
  %58 = getelementptr inbounds nuw i8, ptr %0, i64 24
  %59 = load ptr, ptr %58, align 8, !tbaa !134
  %.not12.i.i = icmp eq ptr %59, null
  br i1 %.not12.i.i, label %quic_raise_normal_error.exit, label %60

60:                                               ; preds = %57
  %61 = getelementptr inbounds nuw i8, ptr %59, i64 376
  store i32 3, ptr %61, align 8, !tbaa !123
  br label %quic_raise_normal_error.exit

quic_raise_normal_error.exit:                     ; preds = %60, %57, %55, %53, %47, %quic_post_write.exit, %9
  %.0 = phi i32 [ 0, %9 ], [ 1, %quic_post_write.exit ], [ 0, %47 ], [ 0, %53 ], [ 0, %55 ], [ 0, %57 ], [ 0, %60 ]
  ret i32 %.0
}